; Function Attrs: nounwind uwtable
define hidden ptr @_PyInstrumentation_BranchesIterator(ptr noundef %0) local_unnamed_addr #2 {
  %2 = tail call ptr @PyType_GenericAlloc(ptr noundef nonnull @_PyBranchesIterator, i64 noundef 0) #11
  %3 = icmp eq ptr %2, null
  br i1 %3, label %11, label %4

4:                                                ; preds = %1
  %5 = load i32, ptr %0, align 8, !tbaa !33
  %6 = icmp slt i32 %5, 0
  br i1 %6, label %_Py_NewRef.exit, label %7

7:                                                ; preds = %4
  %8 = add nuw i32 %5, 1
  store i32 %8, ptr %0, align 8, !tbaa !33
  br label %_Py_NewRef.exit

_Py_NewRef.exit:                                  ; preds = %4, %7
  %9 = getelementptr inbounds nuw i8, ptr %2, i64 16
  store ptr %0, ptr %9, align 8, !tbaa !191
  %10 = getelementptr inbounds nuw i8, ptr %2, i64 24
  store i32 0, ptr %10, align 8, !tbaa !193
  br label %11

11:                                               ; preds = %1, %_Py_NewRef.exit
  ret ptr %2
}